target datalayout = "e-m:e-p270:32:32-p271:32:32-p272:64:64-i64:64-i128:128-f80:128-n8:16:32:64-S128"
target triple = "x86_64-pc-linux-gnu"

%struct.ic_env_s = type { ptr, ptr, ptr, ptr, ptr, ptr, ptr, ptr, ptr, ptr, ptr, ptr, ptr, i8, i8, i8, i8, i8, i8, i8, i8, i8, i8, i8, i8, i8, i64 }

@rpenv = internal global ptr null, align 8

; Function Attrs: nounwind uwtable
define internal ptr @ic_get_env() #0 {
  %1 = load ptr, ptr @rpenv, align 8, !tbaa !65
  %2 = icmp eq ptr %1, null
  br i1 %2, label %3, label %10

3:                                                ; preds = %0
  %4 = call ptr @ic_env_create(ptr noundef null, ptr noundef null, ptr noundef null)
  store ptr %4, ptr @rpenv, align 8, !tbaa !65
  %5 = load ptr, ptr @rpenv, align 8, !tbaa !65
  %6 = icmp ne ptr %5, null
  br i1 %6, label %7, label %9

7:                                                ; preds = %3
  %8 = call i32 @atexit(ptr noundef @ic_atexit) #13
  br label %9

9:                                                ; preds = %7, %3
  br label %10

10:                                               ; preds = %9, %0
  %11 = load ptr, ptr @rpenv, align 8, !tbaa !65
  ret ptr %11
}

; Function Attrs: nounwind uwtable
define dso_local ptr @ic_get_continuation_prompt_marker() #0 {
  %1 = alloca ptr, align 8
  %2 = alloca ptr, align 8
  %3 = alloca i32, align 4
  call void @llvm.lifetime.start.p0(i64 8, ptr %2) #13
  %4 = call ptr @ic_get_env()
  store ptr %4, ptr %2, align 8, !tbaa !65
  %5 = load ptr, ptr %2, align 8, !tbaa !65
  %6 = icmp eq ptr %5, null
  br i1 %6, label %7, label %8

7:                                                ; preds = %0
  store ptr null, ptr %1, align 8
  store i32 1, ptr %3, align 4
  br label %12

8:                                                ; preds = %0
  %9 = load ptr, ptr %2, align 8, !tbaa !65
  %10 = getelementptr inbounds nuw %struct.ic_env_s, ptr %9, i32 0, i32 8
  %11 = load ptr, ptr %10, align 8, !tbaa !147
  store ptr %11, ptr %1, align 8
  store i32 1, ptr %3, align 4
  br label %12

12:                                               ; preds = %8, %7
  call void @llvm.lifetime.end.p0(i64 8, ptr %2) #13
  %13 = load ptr, ptr %1, align 8
  ret ptr %13
}