; Function Attrs: nounwind uwtable
define dso_local ptr @ic_get_continuation_prompt_marker() local_unnamed_addr #0 {
  %1 = load ptr, ptr @rpenv, align 8, !tbaa !108
  %2 = icmp eq ptr %1, null
  br i1 %2, label %3, label %ic_get_env.exit.thread4

3:                                                ; preds = %0
  %4 = tail call fastcc ptr @ic_env_create(ptr noundef null, ptr noundef null, ptr noundef null)
  store ptr %4, ptr @rpenv, align 8, !tbaa !108
  %.not.i = icmp eq ptr %4, null
  br i1 %.not.i, label %ic_get_env.exit.thread, label %ic_get_env.exit

ic_get_env.exit:                                  ; preds = %3
  %5 = tail call i32 @atexit(ptr noundef nonnull @ic_atexit) #32
  %.pre.i = load ptr, ptr @rpenv, align 8, !tbaa !108
  %6 = icmp eq ptr %.pre.i, null
  br i1 %6, label %ic_get_env.exit.thread, label %ic_get_env.exit.thread4

ic_get_env.exit.thread4:                          ; preds = %0, %ic_get_env.exit
  %7 = phi ptr [ %.pre.i, %ic_get_env.exit ], [ %1, %0 ]
  %8 = getelementptr inbounds nuw i8, ptr %7, i64 64
  %9 = load ptr, ptr %8, align 8, !tbaa !138
  br label %ic_get_env.exit.thread

ic_get_env.exit.thread:                           ; preds = %3, %ic_get_env.exit, %ic_get_env.exit.thread4
  %.0 = phi ptr [ %9, %ic_get_env.exit.thread4 ], [ null, %ic_get_env.exit ], [ null, %3 ]
  ret ptr %.0
}